; Function Attrs: mustprogress uwtable
define internal void @_ZNK5faiss12_GLOBAL__N_110IVFScannerINS_22HammingComputerDefaultEE16scan_codes_rangeEmPKhPKlfRNS_16RangeQueryResultE(ptr noundef nonnull align 8 dereferenceable(152) %0, i64 noundef %1, ptr noundef %2, ptr nocapture noundef readonly %3, float noundef %4, ptr noundef nonnull align 8 dereferenceable(24) %5) unnamed_addr #2 align 2 {
  %.not18 = icmp eq i64 %1, 0
  br i1 %.not18, label %._crit_edge, label %.lr.ph

.lr.ph:                                           ; preds = %6
  %7 = getelementptr inbounds i8, ptr %0, i64 136
  %8 = getelementptr inbounds i8, ptr %0, i64 17
  %9 = getelementptr inbounds i8, ptr %0, i64 8
  %10 = getelementptr inbounds i8, ptr %0, i64 32
  br label %11

11:                                               ; preds = %.lr.ph, %27
  %.017 = phi ptr [ %2, %.lr.ph ], [ %29, %27 ]
  %.01315 = phi i64 [ 0, %.lr.ph ], [ %30, %27 ]
  %12 = tail call noundef i32 @_ZNK5faiss22HammingComputerDefault7hammingEPKh(ptr noundef nonnull align 8 dereferenceable(16) %7, ptr noundef %.017)
  %13 = sitofp i32 %12 to float
  %14 = fcmp olt float %13, %4
  br i1 %14, label %15, label %27

15:                                               ; preds = %11
  %16 = load i8, ptr %8, align 1
  %17 = and i8 %16, 1
  %.not = icmp eq i8 %17, 0
  br i1 %.not, label %22, label %18

18:                                               ; preds = %15
  %19 = load i64, ptr %9, align 8
  %20 = shl i64 %19, 32
  %21 = or i64 %20, %.01315
  br label %25

22:                                               ; preds = %15
  %23 = getelementptr inbounds i64, ptr %3, i64 %.01315
  %24 = load i64, ptr %23, align 8
  br label %25

25:                                               ; preds = %22, %18
  %26 = phi i64 [ %21, %18 ], [ %24, %22 ]
  tail call void @_ZN5faiss16RangeQueryResult3addEfl(ptr noundef nonnull align 8 dereferenceable(24) %5, float noundef %13, i64 noundef %26)
  br label %27

27:                                               ; preds = %25, %11
  %28 = load i64, ptr %10, align 8
  %29 = getelementptr inbounds i8, ptr %.017, i64 %28
  %30 = add nuw i64 %.01315, 1
  %exitcond.not = icmp eq i64 %30, %1
  br i1 %exitcond.not, label %._crit_edge, label %11, !llvm.loop !40

._crit_edge:                                      ; preds = %27, %6
  ret void
}